Certificate:
    Data:
        Version: 3 (0x2)
        Serial Number: 1048596 (0x100014)
    Signature Algorithm: sha1WithRSAEncryption
        Issuer: C=BE, ST=Antwerp, L=Mechelen, O=In Serf we trust, Inc., OU=Test Suite CA, CN=Serf CA/emailAddress=serfca@example.com
        Validity
            Not Before: Nov 20 12:00:00 2010 GMT
            Not After : Nov 20 12:00:00 2012 GMT
        Subject: C=BE, ST=Antwerp, L=Mechelen, O=In Serf we trust, Inc., OU=Test Suite Server, CN=Serf Server/emailAddress=serfserver@example.com
        Subject Public Key Info:
            Public Key Algorithm: rsaEncryption
                Public-Key: (1024 bit)
                Modulus:
                    00:ea:92:6f:ab:ed:ce:e1:c3:a8:2e:3e:03:9e:a0:
                    d8:c0:e4:df:e3:58:1f:bf:eb:18:23:c8:ca:a5:9a:
                    f0:f2:b5:97:ce:df:47:15:9a:0e:96:41:cc:b9:92:
                    66:0c:f0:11:f7:f1:8f:3c:29:48:31:4a:1d:93:db:
                    0a:f0:e9:98:5f:98:ed:07:1c:4e:2e:9f:e3:f3:3f:
                    2c:2f:20:d8:f1:5e:8a:8f:3a:aa:3e:9c:f5:99:07:
                    8c:a6:e9:9c:df:03:59:c1:ff:37:5a:bf:69:e8:41:
                    bd:c0:28:66:c4:4b:0a:ab:dd:93:a1:8f:3e:5e:34:
                    5c:e6:04:6c:1d:8b:a3:88:6b
                Exponent: 65537 (0x10001)
        X509v3 extensions:
            X509v3 Basic Constraints: 
                CA:FALSE
            Netscape Comment: 
                OpenSSL Generated Certificate
            X509v3 Subject Key Identifier: 
                18:3A:EE:7E:57:49:42:43:23:42:E4:C9:6B:60:E7:64:1B:08:B2:90
            X509v3 Authority Key Identifier: 
                keyid:DD:F9:F5:E9:24:D4:B4:59:CA:4C:E9:98:61:1A:5D:8C:69:D1:CF:13

    Signature Algorithm: sha1WithRSAEncryption
         11:b1:e3:27:7c:1b:3a:6b:c7:2e:e4:8e:ed:d4:d3:49:b5:9c:
         8f:06:08:b7:36:9d:8e:da:02:37:e5:59:5e:6b:e5:67:d0:df:
         ec:84:dc:b8:92:c4:e4:07:21:92:ff:76:16:45:07:3b:67:c2:
         27:2f:63:1a:ad:60:24:33:21:a9:9b:4e:f4:9c:8e:17:1b:15:
         d3:90:4e:22:f3:84:2f:ec:7c:bd:18:ea:cb:ab:bc:97:10:c9:
         53:f4:76:35:94:af:52:93:6e:ba:2e:2d:e4:3b:12:fb:3f:c2:
         10:b1:dd:59:e2:a3:60:56:a7:02:26:d2:6b:1e:23:33:ba:85:
         5f:9d
-----BEGIN CERTIFICATE-----
MIIDQTCCAqqgAwIBAgIDEAAUMA0GCSqGSIb3DQEBBQUAMIGgMQswCQYDVQQGEwJC
RTEQMA4GA1UECAwHQW50d2VycDERMA8GA1UEBwwITWVjaGVsZW4xHzAdBgNVBAoM
FkluIFNlcmYgd2UgdHJ1c3QsIEluYy4xFjAUBgNVBAsMDVRlc3QgU3VpdGUgQ0Ex
EDAOBgNVBAMMB1NlcmYgQ0ExITAfBgkqhkiG9w0BCQEWEnNlcmZjYUBleGFtcGxl
LmNvbTAeFw0xMDExMjAxMjAwMDBaFw0xMjExMjAxMjAwMDBaMIGsMQswCQYDVQQG
EwJCRTEQMA4GA1UECAwHQW50d2VycDERMA8GA1UEBwwITWVjaGVsZW4xHzAdBgNV
BAoMFkluIFNlcmYgd2UgdHJ1c3QsIEluYy4xGjAYBgNVBAsMEVRlc3QgU3VpdGUg
U2VydmVyMRQwEgYDVQQDDAtTZXJmIFNlcnZlcjElMCMGCSqGSIb3DQEJARYWc2Vy
ZnNlcnZlckBleGFtcGxlLmNvbTCBnzANBgkqhkiG9w0BAQEFAAOBjQAwgYkCgYEA
6pJvq+3O4cOoLj4DnqDYwOTf41gfv+sYI8jKpZrw8rWXzt9HFZoOlkHMuZJmDPAR
9/GPPClIMUodk9sK8OmYX5jtBxxOLp/j8z8sLyDY8V6KjzqqPpz1mQeMpumc3wNZ
wf83Wr9p6EG9wChmxEsKq92ToY8+XjRc5gRsHYujiGsCAwEAAaN7MHkwCQYDVR0T
BAIwADAsBglghkgBhvhCAQ0EHxYdT3BlblNTTCBHZW5lcmF0ZWQgQ2VydGlmaWNh
dGUwHQYDVR0OBBYEFBg67n5XSUJDI0LkyWtg52QbCLKQMB8GA1UdIwQYMBaAFN35
9ekk1LRZykzpmGEaXYxp0c8TMA0GCSqGSIb3DQEBBQUAA4GBABGx4yd8Gzprxy7k
ju3U00m1nI8GCLc2nY7aAjflWV5r5WfQ3+yE3LiSxOQHIZL/dhZFBztnwicvYxqt
YCQzIambTvScjhcbFdOQTiLzhC/sfL0Y6survJcQyVP0djWUr1KTbrouLeQ7Evs/
whCx3Vnio2BWpwIm0mseIzO6hV+d
-----END CERTIFICATE-----
