Certificate:
    Data:
        Version: 1 (0x0)
        Serial Number: 1048599 (0x100017)
    Signature Algorithm: sha1WithRSAEncryption
        Issuer: C=BE, ST=Antwerp, L=Mechelen, O=In Serf we trust, Inc., OU=Test Suite CA, CN=Serf CA/emailAddress=serfca@example.com
        Validity
            Not Before: May 17 20:09:08 2013 GMT
            Not After : May 17 20:09:08 2014 GMT
        Subject: C=BE, ST=Antwerp, L=Mechelen, O=In Serf we trust, Inc., OU=Test Suite Server, CN=localhost/emailAddress=serfserver@example.com
        Subject Public Key Info:
            Public Key Algorithm: rsaEncryption
                Public-Key: (1024 bit)
                Modulus:
                    00:ea:92:6f:ab:ed:ce:e1:c3:a8:2e:3e:03:9e:a0:
                    d8:c0:e4:df:e3:58:1f:bf:eb:18:23:c8:ca:a5:9a:
                    f0:f2:b5:97:ce:df:47:15:9a:0e:96:41:cc:b9:92:
                    66:0c:f0:11:f7:f1:8f:3c:29:48:31:4a:1d:93:db:
                    0a:f0:e9:98:5f:98:ed:07:1c:4e:2e:9f:e3:f3:3f:
                    2c:2f:20:d8:f1:5e:8a:8f:3a:aa:3e:9c:f5:99:07:
                    8c:a6:e9:9c:df:03:59:c1:ff:37:5a:bf:69:e8:41:
                    bd:c0:28:66:c4:4b:0a:ab:dd:93:a1:8f:3e:5e:34:
                    5c:e6:04:6c:1d:8b:a3:88:6b
                Exponent: 65537 (0x10001)
    Signature Algorithm: sha1WithRSAEncryption
         83:26:09:bf:45:7e:ef:a2:94:97:25:78:a9:2c:c9:2f:fb:53:
         61:8b:9b:72:49:dd:81:19:48:ac:5e:b3:e7:f5:c3:31:a6:8a:
         8b:21:20:fd:bd:89:ff:90:b3:11:6e:99:03:48:a3:33:69:e9:
         af:91:d8:40:e0:01:9c:42:5b:71:98:41:0c:03:c1:29:92:8a:
         1b:12:51:d9:b2:7b:63:23:03:8b:63:74:fd:6f:9a:c9:4c:c3:
         95:9a:d3:32:1e:6e:1d:e1:a8:1e:16:ea:ce:28:ca:c1:11:c4:
         26:15:dd:7c:b6:1a:ee:7e:00:db:39:ae:4b:94:bc:27:3a:1e:
         20:8b
-----BEGIN CERTIFICATE-----
MIICvTCCAiYCAxAAFzANBgkqhkiG9w0BAQUFADCBoDELMAkGA1UEBhMCQkUxEDAO
BgNVBAgMB0FudHdlcnAxETAPBgNVBAcMCE1lY2hlbGVuMR8wHQYDVQQKDBZJbiBT
ZXJmIHdlIHRydXN0LCBJbmMuMRYwFAYDVQQLDA1UZXN0IFN1aXRlIENBMRAwDgYD
VQQDDAdTZXJmIENBMSEwHwYJKoZIhvcNAQkBFhJzZXJmY2FAZXhhbXBsZS5jb20w
HhcNMTMwNTE3MjAwOTA4WhcNMTQwNTE3MjAwOTA4WjCBqjELMAkGA1UEBhMCQkUx
EDAOBgNVBAgMB0FudHdlcnAxETAPBgNVBAcMCE1lY2hlbGVuMR8wHQYDVQQKDBZJ
biBTZXJmIHdlIHRydXN0LCBJbmMuMRowGAYDVQQLDBFUZXN0IFN1aXRlIFNlcnZl
cjESMBAGA1UEAwwJbG9jYWxob3N0MSUwIwYJKoZIhvcNAQkBFhZzZXJmc2VydmVy
QGV4YW1wbGUuY29tMIGfMA0GCSqGSIb3DQEBAQUAA4GNADCBiQKBgQDqkm+r7c7h
w6guPgOeoNjA5N/jWB+/6xgjyMqlmvDytZfO30cVmg6WQcy5kmYM8BH38Y88KUgx
Sh2T2wrw6ZhfmO0HHE4un+PzPywvINjxXoqPOqo+nPWZB4ym6ZzfA1nB/zdav2no
Qb3AKGbESwqr3ZOhjz5eNFzmBGwdi6OIawIDAQABMA0GCSqGSIb3DQEBBQUAA4GB
AIMmCb9Ffu+ilJcleKksyS/7U2GLm3JJ3YEZSKxes+f1wzGmioshIP29if+QsxFu
mQNIozNp6a+R2EDgAZxCW3GYQQwDwSmSihsSUdmye2MjA4tjdP1vmslMw5Wa0zIe
bh3hqB4W6s4oysERxCYV3Xy2Gu5+ANs5rkuUvCc6HiCL
-----END CERTIFICATE-----
