Certificate:
    Data:
        Version: 3 (0x2)
        Serial Number: 1048597 (0x100015)
    Signature Algorithm: sha1WithRSAEncryption
        Issuer: C=BE, ST=Antwerp, L=Mechelen, O=In Serf we trust, Inc., OU=Test Suite CA, CN=Serf CA/emailAddress=serfca@example.com
        Validity
            Not Before: Nov 20 12:00:00 2023 GMT
            Not After : Nov 20 12:00:00 2025 GMT
        Subject: C=BE, ST=Antwerp, L=Mechelen, O=In Serf we trust, Inc., OU=Test Suite Server, CN=Serf Server/emailAddress=serfserver@example.com
        Subject Public Key Info:
            Public Key Algorithm: rsaEncryption
                Public-Key: (1024 bit)
                Modulus:
                    00:ea:92:6f:ab:ed:ce:e1:c3:a8:2e:3e:03:9e:a0:
                    d8:c0:e4:df:e3:58:1f:bf:eb:18:23:c8:ca:a5:9a:
                    f0:f2:b5:97:ce:df:47:15:9a:0e:96:41:cc:b9:92:
                    66:0c:f0:11:f7:f1:8f:3c:29:48:31:4a:1d:93:db:
                    0a:f0:e9:98:5f:98:ed:07:1c:4e:2e:9f:e3:f3:3f:
                    2c:2f:20:d8:f1:5e:8a:8f:3a:aa:3e:9c:f5:99:07:
                    8c:a6:e9:9c:df:03:59:c1:ff:37:5a:bf:69:e8:41:
                    bd:c0:28:66:c4:4b:0a:ab:dd:93:a1:8f:3e:5e:34:
                    5c:e6:04:6c:1d:8b:a3:88:6b
                Exponent: 65537 (0x10001)
        X509v3 extensions:
            X509v3 Basic Constraints: 
                CA:FALSE
            Netscape Comment: 
                OpenSSL Generated Certificate
            X509v3 Subject Key Identifier: 
                18:3A:EE:7E:57:49:42:43:23:42:E4:C9:6B:60:E7:64:1B:08:B2:90
            X509v3 Authority Key Identifier: 
                keyid:DD:F9:F5:E9:24:D4:B4:59:CA:4C:E9:98:61:1A:5D:8C:69:D1:CF:13

    Signature Algorithm: sha1WithRSAEncryption
         04:6a:2f:a9:fb:18:69:74:ad:3c:24:19:be:81:7e:03:f0:74:
         f0:26:7d:b4:74:2a:8b:d3:a8:b3:33:73:af:35:5a:6c:ea:d8:
         e9:0e:45:14:57:19:b4:7a:17:e1:b4:9a:3f:7e:7b:9c:c9:1d:
         5d:1f:47:28:18:4b:a6:81:96:e0:99:ee:44:cf:13:1b:a1:aa:
         b6:f0:82:91:09:e7:bd:5f:4e:ae:b3:70:38:e4:93:72:6f:25:
         bb:ad:d0:a5:e6:db:85:c8:a7:7b:10:cc:c7:16:bf:8b:c2:f3:
         c3:9a:35:d0:dd:66:6d:b3:5b:7c:0c:54:f2:1d:c6:f4:4f:75:
         6e:91
-----BEGIN CERTIFICATE-----
MIIDQTCCAqqgAwIBAgIDEAAVMA0GCSqGSIb3DQEBBQUAMIGgMQswCQYDVQQGEwJC
RTEQMA4GA1UECAwHQW50d2VycDERMA8GA1UEBwwITWVjaGVsZW4xHzAdBgNVBAoM
FkluIFNlcmYgd2UgdHJ1c3QsIEluYy4xFjAUBgNVBAsMDVRlc3QgU3VpdGUgQ0Ex
EDAOBgNVBAMMB1NlcmYgQ0ExITAfBgkqhkiG9w0BCQEWEnNlcmZjYUBleGFtcGxl
LmNvbTAeFw0yMzExMjAxMjAwMDBaFw0yNTExMjAxMjAwMDBaMIGsMQswCQYDVQQG
EwJCRTEQMA4GA1UECAwHQW50d2VycDERMA8GA1UEBwwITWVjaGVsZW4xHzAdBgNV
BAoMFkluIFNlcmYgd2UgdHJ1c3QsIEluYy4xGjAYBgNVBAsMEVRlc3QgU3VpdGUg
U2VydmVyMRQwEgYDVQQDDAtTZXJmIFNlcnZlcjElMCMGCSqGSIb3DQEJARYWc2Vy
ZnNlcnZlckBleGFtcGxlLmNvbTCBnzANBgkqhkiG9w0BAQEFAAOBjQAwgYkCgYEA
6pJvq+3O4cOoLj4DnqDYwOTf41gfv+sYI8jKpZrw8rWXzt9HFZoOlkHMuZJmDPAR
9/GPPClIMUodk9sK8OmYX5jtBxxOLp/j8z8sLyDY8V6KjzqqPpz1mQeMpumc3wNZ
wf83Wr9p6EG9wChmxEsKq92ToY8+XjRc5gRsHYujiGsCAwEAAaN7MHkwCQYDVR0T
BAIwADAsBglghkgBhvhCAQ0EHxYdT3BlblNTTCBHZW5lcmF0ZWQgQ2VydGlmaWNh
dGUwHQYDVR0OBBYEFBg67n5XSUJDI0LkyWtg52QbCLKQMB8GA1UdIwQYMBaAFN35
9ekk1LRZykzpmGEaXYxp0c8TMA0GCSqGSIb3DQEBBQUAA4GBAARqL6n7GGl0rTwk
Gb6BfgPwdPAmfbR0KovTqLMzc681Wmzq2OkORRRXGbR6F+G0mj9+e5zJHV0fRygY
S6aBluCZ7kTPExuhqrbwgpEJ571fTq6zcDjkk3JvJbut0KXm24XIp3sQzMcWv4vC
88OaNdDdZm2zW3wMVPIdxvRPdW6R
-----END CERTIFICATE-----
