Certificate:
    Data:
        Version: 3 (0x2)
        Serial Number: 1048591 (0x10000f)
    Signature Algorithm: sha1WithRSAEncryption
        Issuer: C=BE, ST=Antwerp, L=Mechelen, O=In Serf we trust, Inc., OU=Test Suite Root CA, CN=Serf Root CA/emailAddress=serfrootca@example.com
        Validity
            Not Before: Apr 18 19:47:06 2013 GMT
            Not After : Apr 18 19:47:06 2014 GMT
        Subject: C=BE, ST=Antwerp, L=Mechelen, O=In Serf we trust, Inc., OU=Test Suite CA, CN=Serf CA/emailAddress=serfca@example.com
        Subject Public Key Info:
            Public Key Algorithm: rsaEncryption
                Public-Key: (1024 bit)
                Modulus:
                    00:bb:2a:03:8e:a3:47:80:8c:c8:f8:b7:1d:4a:3b:
                    1f:15:57:52:32:b8:a9:9e:a3:01:ed:0d:88:58:b6:
                    fa:19:81:92:d1:de:4d:c6:f9:a2:0d:1b:65:68:3a:
                    74:32:ae:f3:51:1f:bb:43:fc:27:64:1c:2c:3b:bd:
                    f5:e8:b1:ef:47:ab:a7:54:1e:d1:5f:49:c9:5f:2f:
                    a2:78:5e:76:3b:72:9b:c1:e5:33:ce:10:6a:56:cc:
                    64:2e:23:22:ef:b7:6a:e0:a8:fc:06:2e:06:ce:56:
                    b8:8a:de:1b:9b:83:54:6a:9f:c5:16:84:7f:72:f2:
                    e1:f5:56:51:2d:55:ce:61:dd
                Exponent: 65537 (0x10001)
        X509v3 extensions:
            X509v3 Subject Key Identifier: 
                DD:F9:F5:E9:24:D4:B4:59:CA:4C:E9:98:61:1A:5D:8C:69:D1:CF:13
            X509v3 Authority Key Identifier: 
                keyid:B2:3E:19:35:C1:C4:4F:23:79:ED:BF:E8:DC:5C:31:03:F0:2F:15:77

            X509v3 Basic Constraints: 
                CA:TRUE
    Signature Algorithm: sha1WithRSAEncryption
         2a:db:bd:2b:da:8b:c3:e6:bb:6c:f0:7f:2e:1a:50:8a:81:49:
         15:45:88:e8:98:6d:0e:ed:67:8d:31:49:b1:71:50:fc:77:c1:
         b9:39:0d:9e:23:ef:cb:e5:04:77:59:b4:0b:54:bd:37:8a:50:
         3b:da:0a:b2:30:f0:ee:04:50:67:e1:15:d0:50:53:7b:bd:96:
         7d:05:3a:e1:fd:85:aa:09:b0:7b:bf:e8:a1:ee:6c:68:2c:51:
         a4:0c:f3:1d:9c:0e:4f:53:0c:a6:a3:41:53:0c:3d:58:09:14:
         44:5d:dc:cc:ea:85:de:dd:1f:3b:57:65:29:a2:c4:32:87:6b:
         e3:a0
-----BEGIN CERTIFICATE-----
MIIDGDCCAoGgAwIBAgIDEAAPMA0GCSqGSIb3DQEBBQUAMIGuMQswCQYDVQQGEwJC
RTEQMA4GA1UECAwHQW50d2VycDERMA8GA1UEBwwITWVjaGVsZW4xHzAdBgNVBAoM
FkluIFNlcmYgd2UgdHJ1c3QsIEluYy4xGzAZBgNVBAsMElRlc3QgU3VpdGUgUm9v
dCBDQTEVMBMGA1UEAwwMU2VyZiBSb290IENBMSUwIwYJKoZIhvcNAQkBFhZzZXJm
cm9vdGNhQGV4YW1wbGUuY29tMB4XDTEzMDQxODE5NDcwNloXDTE0MDQxODE5NDcw
NlowgaAxCzAJBgNVBAYTAkJFMRAwDgYDVQQIDAdBbnR3ZXJwMREwDwYDVQQHDAhN
ZWNoZWxlbjEfMB0GA1UECgwWSW4gU2VyZiB3ZSB0cnVzdCwgSW5jLjEWMBQGA1UE
CwwNVGVzdCBTdWl0ZSBDQTEQMA4GA1UEAwwHU2VyZiBDQTEhMB8GCSqGSIb3DQEJ
ARYSc2VyZmNhQGV4YW1wbGUuY29tMIGfMA0GCSqGSIb3DQEBAQUAA4GNADCBiQKB
gQC7KgOOo0eAjMj4tx1KOx8VV1IyuKmeowHtDYhYtvoZgZLR3k3G+aING2VoOnQy
rvNRH7tD/CdkHCw7vfXose9Hq6dUHtFfSclfL6J4XnY7cpvB5TPOEGpWzGQuIyLv
t2rgqPwGLgbOVriK3hubg1Rqn8UWhH9y8uH1VlEtVc5h3QIDAQABo1AwTjAdBgNV
HQ4EFgQU3fn16STUtFnKTOmYYRpdjGnRzxMwHwYDVR0jBBgwFoAUsj4ZNcHETyN5
7b/o3FwxA/AvFXcwDAYDVR0TBAUwAwEB/zANBgkqhkiG9w0BAQUFAAOBgQAq270r
2ovD5rts8H8uGlCKgUkVRYjomG0O7WeNMUmxcVD8d8G5OQ2eI+/L5QR3WbQLVL03
ilA72gqyMPDuBFBn4RXQUFN7vZZ9BTrh/YWqCbB7v+ih7mxoLFGkDPMdnA5PUwym
o0FTDD1YCRREXdzM6oXe3R87V2UposQyh2vjoA==
-----END CERTIFICATE-----
